(dp0
(S'0000010000'
p1
I0
tp2
F17.62674695548387
s(S'0000000100'
p3
I2
tp4
F10.249654128870725
s(S'0000000010'
p5
I1
tp6
F10.162702383885348
s(S'1000000000'
p7
I0
tp8
F-28.801109162704762
s(S'1000000000'
p9
I2
tp10
F3.5175163513218775
s(S'0000000001'
p11
I2
tp12
F6.6569923333366745
s(S'0000001000'
p13
I1
tp14
F11.297972609953181
s(S'0000000001'
p15
I0
tp16
F10.407513502466998
s(S'0100000000'
p17
I1
tp18
F9.732455035489071
s(S'0000100000'
p19
I1
tp20
F11.76052820812098
s(S'0000000000'
p21
I1
tp22
F-45.86984985859478
s(S'0000000000'
p23
I0
tp24
F-33.57071005510287
s(S'0010000000'
p25
I0
tp26
F12.886339357323367
s(S'0001000000'
p27
I1
tp28
F13.049739108828831
s(S'1000000000'
p29
I1
tp30
F2.060814359578708
s(S'0000000001'
p31
I1
tp32
F-33.58985791123777
s(S'0000000000'
p33
I2
tp34
F-3.692091776882134
s.